; Function Attrs: mustprogress uwtable
define void @_ZN2cv4text10ERFilterNM11setCallbackERKNS_3PtrINS0_8ERFilter8CallbackEEE(ptr noundef nonnull align 8 captures(none) dereferenceable(160) initializes((32, 40)) %0, ptr noundef nonnull readonly align 8 captures(none) dereferenceable(16) %1) unnamed_addr #3 align 2 personality ptr @__gxx_personality_v0 {
  %3 = getelementptr inbounds nuw i8, ptr %0, i64 32
  %4 = load ptr, ptr %1, align 8, !tbaa !171
  store ptr %4, ptr %3, align 8, !tbaa !171
  %5 = getelementptr inbounds nuw i8, ptr %0, i64 40
  %6 = getelementptr inbounds nuw i8, ptr %1, i64 8
  %7 = load ptr, ptr %6, align 8, !tbaa !35
  %8 = load ptr, ptr %5, align 8, !tbaa !35
  %.not.i.i.i.i = icmp eq ptr %7, %8
  br i1 %.not.i.i.i.i, label %_ZN2cv3PtrINS_4text8ERFilter8CallbackEEaSERKS4_.exit, label %9

9:                                                ; preds = %2
  %.not7.i.i.i.i = icmp eq ptr %7, null
  br i1 %.not7.i.i.i.i, label %_ZNSt16_Sp_counted_baseILN9__gnu_cxx12_Lock_policyE2EE15_M_add_ref_copyEv.exit.i.i.i.i, label %10

10:                                               ; preds = %9
  %11 = getelementptr inbounds nuw i8, ptr %7, i64 8
  %12 = load i8, ptr @__libc_single_threaded, align 1, !tbaa !36
  %.not.i.i.i.i.i = icmp eq i8 %12, 0
  br i1 %.not.i.i.i.i.i, label %16, label %13

13:                                               ; preds = %10
  %14 = load i32, ptr %11, align 4, !tbaa !23
  %15 = add nsw i32 %14, 1
  store i32 %15, ptr %11, align 4, !tbaa !23
  br label %_ZNSt16_Sp_counted_baseILN9__gnu_cxx12_Lock_policyE2EE15_M_add_ref_copyEv.exit.i.i.i.i

16:                                               ; preds = %10
  %17 = atomicrmw volatile add ptr %11, i32 1 acq_rel, align 4
  %.pr.pre.i.i.i.i = load ptr, ptr %5, align 8, !tbaa !35
  br label %_ZNSt16_Sp_counted_baseILN9__gnu_cxx12_Lock_policyE2EE15_M_add_ref_copyEv.exit.i.i.i.i

_ZNSt16_Sp_counted_baseILN9__gnu_cxx12_Lock_policyE2EE15_M_add_ref_copyEv.exit.i.i.i.i: ; preds = %16, %13, %9
  %18 = phi ptr [ %8, %9 ], [ %8, %13 ], [ %.pr.pre.i.i.i.i, %16 ]
  %.not8.i.i.i.i = icmp eq ptr %18, null
  br i1 %.not8.i.i.i.i, label %_ZNSt16_Sp_counted_baseILN9__gnu_cxx12_Lock_policyE2EE10_M_releaseEv.exit.i.i.i.i, label %19

19:                                               ; preds = %_ZNSt16_Sp_counted_baseILN9__gnu_cxx12_Lock_policyE2EE15_M_add_ref_copyEv.exit.i.i.i.i
  %20 = getelementptr inbounds nuw i8, ptr %18, i64 8
  %21 = load atomic i64, ptr %20 acquire, align 8
  %22 = icmp eq i64 %21, 4294967297
  %23 = trunc i64 %21 to i32
  br i1 %22, label %24, label %32

24:                                               ; preds = %19
  store i32 0, ptr %20, align 8, !tbaa !24
  %25 = getelementptr inbounds nuw i8, ptr %18, i64 12
  store i32 0, ptr %25, align 4, !tbaa !31
  %26 = load ptr, ptr %18, align 8, !tbaa !32
  %27 = getelementptr inbounds nuw i8, ptr %26, i64 16
  %28 = load ptr, ptr %27, align 8
  tail call void %28(ptr noundef nonnull align 8 dereferenceable(16) %18) #37
  %29 = load ptr, ptr %18, align 8, !tbaa !32
  %30 = getelementptr inbounds nuw i8, ptr %29, i64 24
  %31 = load ptr, ptr %30, align 8
  tail call void %31(ptr noundef nonnull align 8 dereferenceable(16) %18) #37
  br label %_ZNSt16_Sp_counted_baseILN9__gnu_cxx12_Lock_policyE2EE10_M_releaseEv.exit.i.i.i.i

32:                                               ; preds = %19
  %33 = load i8, ptr @__libc_single_threaded, align 1, !tbaa !36
  %.not.i9.i.i.i.i = icmp eq i8 %33, 0
  br i1 %.not.i9.i.i.i.i, label %36, label %34

34:                                               ; preds = %32
  %35 = add nsw i32 %23, -1
  store i32 %35, ptr %20, align 4, !tbaa !23
  br label %_ZN9__gnu_cxx27__exchange_and_add_dispatchEPii.exit.i.i.i.i.i

36:                                               ; preds = %32
  %37 = atomicrmw volatile add ptr %20, i32 -1 acq_rel, align 4
  br label %_ZN9__gnu_cxx27__exchange_and_add_dispatchEPii.exit.i.i.i.i.i

_ZN9__gnu_cxx27__exchange_and_add_dispatchEPii.exit.i.i.i.i.i: ; preds = %36, %34
  %.0.i.i.i.i.i.i = phi i32 [ %23, %34 ], [ %37, %36 ]
  %38 = icmp eq i32 %.0.i.i.i.i.i.i, 1
  br i1 %38, label %39, label %_ZNSt16_Sp_counted_baseILN9__gnu_cxx12_Lock_policyE2EE10_M_releaseEv.exit.i.i.i.i, !prof !37

39:                                               ; preds = %_ZN9__gnu_cxx27__exchange_and_add_dispatchEPii.exit.i.i.i.i.i
  tail call void @_ZNSt16_Sp_counted_baseILN9__gnu_cxx12_Lock_policyE2EE24_M_release_last_use_coldEv(ptr noundef nonnull align 8 dereferenceable(16) %18) #37
  br label %_ZNSt16_Sp_counted_baseILN9__gnu_cxx12_Lock_policyE2EE10_M_releaseEv.exit.i.i.i.i

_ZNSt16_Sp_counted_baseILN9__gnu_cxx12_Lock_policyE2EE10_M_releaseEv.exit.i.i.i.i: ; preds = %39, %_ZN9__gnu_cxx27__exchange_and_add_dispatchEPii.exit.i.i.i.i.i, %24, %_ZNSt16_Sp_counted_baseILN9__gnu_cxx12_Lock_policyE2EE15_M_add_ref_copyEv.exit.i.i.i.i
  store ptr %7, ptr %5, align 8, !tbaa !35
  br label %_ZN2cv3PtrINS_4text8ERFilter8CallbackEEaSERKS4_.exit

_ZN2cv3PtrINS_4text8ERFilter8CallbackEEaSERKS4_.exit: ; preds = %2, %_ZNSt16_Sp_counted_baseILN9__gnu_cxx12_Lock_policyE2EE10_M_releaseEv.exit.i.i.i.i
  ret void
}